; Function Attrs: cold nounwind optsize uwtable
define internal noundef i32 @ffv1_decode_close(ptr noundef readonly captures(none) %0) #1 {
  %2 = getelementptr inbounds nuw i8, ptr %0, i64 32
  %3 = load ptr, ptr %2, align 8, !tbaa !4
  %4 = getelementptr inbounds nuw i8, ptr %3, i64 4232
  tail call void @ff_progress_frame_unref(ptr noundef nonnull %4) #11
  %5 = getelementptr inbounds nuw i8, ptr %3, i64 4264
  tail call void @av_refstruct_unref(ptr noundef nonnull %5) #11
  %6 = getelementptr inbounds nuw i8, ptr %3, i64 4248
  tail call void @ff_progress_frame_unref(ptr noundef nonnull %6) #11
  %7 = getelementptr inbounds nuw i8, ptr %3, i64 4272
  tail call void @av_refstruct_unref(ptr noundef nonnull %7) #11
  tail call void @ff_ffv1_close(ptr noundef %3) #11
  ret i32 0
}